; Function Attrs: uwtable
define void @_ZThn32_N8proxygen2hq14HQControlCodec19parsePriorityUpdateERN5folly2io6CursorERKNS0_11FrameHeaderE(ptr noalias sret(%"class.folly::Optional") align 8 %agg.result, ptr nocapture noundef readonly %this, ptr noundef nonnull align 8 dereferenceable(56) %cursor, ptr noundef nonnull align 8 dereferenceable(16) %header) unnamed_addr #9 align 2 personality ptr @__gxx_personality_v0 {
entry:
  %prioritizedElement.i = alloca i64, align 8
  %priorityUpdate.i = alloca %"struct.proxygen::HTTPPriority", align 8
  tail call void @llvm.experimental.noalias.scope.decl(metadata !23)
  call void @llvm.lifetime.start.p0(i64 8, ptr nonnull %prioritizedElement.i)
  call void @llvm.lifetime.start.p0(i64 16, ptr nonnull %priorityUpdate.i)
  store ptr getelementptr inbounds ({ [4 x ptr] }, ptr @_ZTVN8proxygen12HTTPPriorityE, i64 0, i32 0, i64 2), ptr %priorityUpdate.i, align 8, !noalias !23
  %urgency.i.i = getelementptr inbounds i8, ptr %priorityUpdate.i, i64 8
  store i64 11, ptr %urgency.i.i, align 8, !noalias !23
  call void @_ZN8proxygen2hq19parsePriorityUpdateERN5folly2io6CursorERKNS0_11FrameHeaderERmRNS_12HTTPPriorityE(ptr sret(%"class.folly::Optional") align 8 %agg.result, ptr noundef nonnull align 8 dereferenceable(56) %cursor, ptr noundef nonnull align 8 dereferenceable(16) %header, ptr noundef nonnull align 8 dereferenceable(8) %prioritizedElement.i, ptr noundef nonnull align 8 dereferenceable(16) %priorityUpdate.i) #25
  %hasValue.i.i.i = getelementptr inbounds i8, ptr %agg.result, i64 8
  %0 = load i8, ptr %hasValue.i.i.i, align 8, !alias.scope !23
  %1 = and i8 %0, 1
  %tobool.i.i.not.i = icmp eq i8 %1, 0
  br i1 %tobool.i.i.not.i, label %if.then.i, label %_ZN8proxygen2hq14HQControlCodec19parsePriorityUpdateERN5folly2io6CursorERKNS0_11FrameHeaderE.exit

if.then.i:                                        ; preds = %entry
  %callback_.i = getelementptr inbounds i8, ptr %this, i64 24
  %2 = load ptr, ptr %callback_.i, align 8, !noalias !23
  %3 = load i64, ptr %prioritizedElement.i, align 8, !noalias !23
  %vtable.i = load ptr, ptr %2, align 8
  %vfn.i = getelementptr inbounds i8, ptr %vtable.i, i64 160
  %4 = load ptr, ptr %vfn.i, align 8
  call void %4(ptr noundef nonnull align 8 dereferenceable(8) %2, i64 noundef %3, ptr noundef nonnull align 8 dereferenceable(16) %priorityUpdate.i)
  br label %_ZN8proxygen2hq14HQControlCodec19parsePriorityUpdateERN5folly2io6CursorERKNS0_11FrameHeaderE.exit

_ZN8proxygen2hq14HQControlCodec19parsePriorityUpdateERN5folly2io6CursorERKNS0_11FrameHeaderE.exit: ; preds = %entry, %if.then.i
  call void @llvm.lifetime.end.p0(i64 8, ptr nonnull %prioritizedElement.i)
  call void @llvm.lifetime.end.p0(i64 16, ptr nonnull %priorityUpdate.i)
  ret void
}